target datalayout = "e-m:e-p270:32:32-p271:32:32-p272:64:64-i64:64-i128:128-f80:128-n8:16:32:64-S128"
target triple = "x86_64-pc-linux-gnu"

%"class.gmx::ArrayRef" = type { %"struct.gmx::ArrayRefIter", %"struct.gmx::ArrayRefIter" }
%"struct.gmx::ArrayRefIter" = type { ptr }
%union.t_iparams = type { %struct.anon.21 }
%struct.anon.21 = type { [3 x float], [3 x float], [3 x float], [3 x float] }
%struct.anon.28 = type { float, float, float, float, float, float }

; Function Attrs: mustprogress nounwind uwtable
define void @_Z16make_dp_periodicPf(ptr noundef %0) #3 {
  %2 = alloca ptr, align 8
  store ptr %0, ptr %2, align 8
  %3 = load ptr, ptr %2, align 8
  %4 = load float, ptr %3, align 4
  %5 = fpext float %4 to double
  %6 = fcmp oge double %5, 0x400921FB54442D18
  br i1 %6, label %7, label %13

7:                                                ; preds = %1
  %8 = load ptr, ptr %2, align 8
  %9 = load float, ptr %8, align 4
  %10 = fpext float %9 to double
  %11 = fsub double %10, 0x401921FB54442D18
  %12 = fptrunc double %11 to float
  store float %12, ptr %8, align 4
  br label %25

13:                                               ; preds = %1
  %14 = load ptr, ptr %2, align 8
  %15 = load float, ptr %14, align 4
  %16 = fpext float %15 to double
  %17 = fcmp olt double %16, 0xC00921FB54442D18
  br i1 %17, label %18, label %24

18:                                               ; preds = %13
  %19 = load ptr, ptr %2, align 8
  %20 = load float, ptr %19, align 4
  %21 = fpext float %20 to double
  %22 = fadd double %21, 0x401921FB54442D18
  %23 = fptrunc double %22 to float
  store float %23, ptr %19, align 4
  br label %24

24:                                               ; preds = %18, %13
  br label %25

25:                                               ; preds = %24, %7
  ret void
}

; Function Attrs: mustprogress uwtable
define internal noundef float @_ZN12_GLOBAL__N_16dihresIL18BondedKernelFlavor3EEEfiPKiPK9t_iparamsPA3_KfPA4_fPA3_fPK5t_pbcfPfN3gmx8ArrayRefIS7_EEP8t_fcdataP12t_disresdataP12t_oriresdataPi(i32 noundef %0, ptr noundef %1, ptr noundef %2, ptr noundef %3, ptr noundef %4, ptr noundef %5, ptr noundef %6, float noundef %7, ptr noundef %8, ptr noundef byval(%"class.gmx::ArrayRef") align 8 %9, ptr noundef %10, ptr noundef %11, ptr noundef %12, ptr noundef %13) #2 {
  %15 = alloca i32, align 4
  %16 = alloca ptr, align 8
  %17 = alloca ptr, align 8
  %18 = alloca ptr, align 8
  %19 = alloca ptr, align 8
  %20 = alloca ptr, align 8
  %21 = alloca ptr, align 8
  %22 = alloca float, align 4
  %23 = alloca ptr, align 8
  %24 = alloca ptr, align 8
  %25 = alloca ptr, align 8
  %26 = alloca ptr, align 8
  %27 = alloca ptr, align 8
  %28 = alloca float, align 4
  %29 = alloca i32, align 4
  %30 = alloca i32, align 4
  %31 = alloca i32, align 4
  %32 = alloca i32, align 4
  %33 = alloca i32, align 4
  %34 = alloca i32, align 4
  %35 = alloca i32, align 4
  %36 = alloca i32, align 4
  %37 = alloca i32, align 4
  %38 = alloca float, align 4
  %39 = alloca float, align 4
  %40 = alloca float, align 4
  %41 = alloca float, align 4
  %42 = alloca float, align 4
  %43 = alloca float, align 4
  %44 = alloca float, align 4
  %45 = alloca float, align 4
  %46 = alloca float, align 4
  %47 = alloca float, align 4
  %48 = alloca float, align 4
  %49 = alloca float, align 4
  %50 = alloca float, align 4
  %51 = alloca float, align 4
  %52 = alloca float, align 4
  %53 = alloca float, align 4
  %54 = alloca [3 x float], align 4
  %55 = alloca [3 x float], align 4
  %56 = alloca [3 x float], align 4
  %57 = alloca [3 x float], align 4
  %58 = alloca [3 x float], align 4
  store i32 %0, ptr %15, align 4
  store ptr %1, ptr %16, align 8
  store ptr %2, ptr %17, align 8
  store ptr %3, ptr %18, align 8
  store ptr %4, ptr %19, align 8
  store ptr %5, ptr %20, align 8
  store ptr %6, ptr %21, align 8
  store float %7, ptr %22, align 4
  store ptr %8, ptr %23, align 8
  store ptr %10, ptr %24, align 8
  store ptr %11, ptr %25, align 8
  store ptr %12, ptr %26, align 8
  store ptr %13, ptr %27, align 8
  store float 0.000000e+00, ptr %28, align 4
  %59 = load float, ptr %22, align 4
  %60 = fpext float %59 to double
  %61 = fsub double 1.000000e+00, %60
  %62 = fptrunc double %61 to float
  store float %62, ptr %53, align 4
  store float 0x3F91DF46A0000000, ptr %52, align 4
  store i32 0, ptr %33, align 4
  br label %63

63:                                               ; preds = %293, %14
  %64 = load i32, ptr %33, align 4
  %65 = load i32, ptr %15, align 4
  %66 = icmp slt i32 %64, %65
  br i1 %66, label %67, label %294

67:                                               ; preds = %63
  %68 = load ptr, ptr %16, align 8
  %69 = load i32, ptr %33, align 4
  %70 = add nsw i32 %69, 1
  store i32 %70, ptr %33, align 4
  %71 = sext i32 %69 to i64
  %72 = getelementptr inbounds i32, ptr %68, i64 %71
  %73 = load i32, ptr %72, align 4
  store i32 %73, ptr %34, align 4
  %74 = load ptr, ptr %16, align 8
  %75 = load i32, ptr %33, align 4
  %76 = add nsw i32 %75, 1
  store i32 %76, ptr %33, align 4
  %77 = sext i32 %75 to i64
  %78 = getelementptr inbounds i32, ptr %74, i64 %77
  %79 = load i32, ptr %78, align 4
  store i32 %79, ptr %29, align 4
  %80 = load ptr, ptr %16, align 8
  %81 = load i32, ptr %33, align 4
  %82 = add nsw i32 %81, 1
  store i32 %82, ptr %33, align 4
  %83 = sext i32 %81 to i64
  %84 = getelementptr inbounds i32, ptr %80, i64 %83
  %85 = load i32, ptr %84, align 4
  store i32 %85, ptr %30, align 4
  %86 = load ptr, ptr %16, align 8
  %87 = load i32, ptr %33, align 4
  %88 = add nsw i32 %87, 1
  store i32 %88, ptr %33, align 4
  %89 = sext i32 %87 to i64
  %90 = getelementptr inbounds i32, ptr %86, i64 %89
  %91 = load i32, ptr %90, align 4
  store i32 %91, ptr %31, align 4
  %92 = load ptr, ptr %16, align 8
  %93 = load i32, ptr %33, align 4
  %94 = add nsw i32 %93, 1
  store i32 %94, ptr %33, align 4
  %95 = sext i32 %93 to i64
  %96 = getelementptr inbounds i32, ptr %92, i64 %95
  %97 = load i32, ptr %96, align 4
  store i32 %97, ptr %32, align 4
  %98 = load ptr, ptr %17, align 8
  %99 = load i32, ptr %34, align 4
  %100 = sext i32 %99 to i64
  %101 = getelementptr inbounds %union.t_iparams, ptr %98, i64 %100
  %102 = getelementptr inbounds %struct.anon.28, ptr %101, i32 0, i32 0
  %103 = load float, ptr %102, align 4
  %104 = load float, ptr %52, align 4
  %105 = fmul float %103, %104
  store float %105, ptr %38, align 4
  %106 = load ptr, ptr %17, align 8
  %107 = load i32, ptr %34, align 4
  %108 = sext i32 %107 to i64
  %109 = getelementptr inbounds %union.t_iparams, ptr %106, i64 %108
  %110 = getelementptr inbounds %struct.anon.28, ptr %109, i32 0, i32 1
  %111 = load float, ptr %110, align 4
  %112 = load float, ptr %52, align 4
  %113 = fmul float %111, %112
  store float %113, ptr %40, align 4
  %114 = load ptr, ptr %17, align 8
  %115 = load i32, ptr %34, align 4
  %116 = sext i32 %115 to i64
  %117 = getelementptr inbounds %union.t_iparams, ptr %114, i64 %116
  %118 = getelementptr inbounds %struct.anon.28, ptr %117, i32 0, i32 2
  %119 = load float, ptr %118, align 4
  store float %119, ptr %42, align 4
  %120 = load ptr, ptr %17, align 8
  %121 = load i32, ptr %34, align 4
  %122 = sext i32 %121 to i64
  %123 = getelementptr inbounds %union.t_iparams, ptr %120, i64 %122
  %124 = getelementptr inbounds %struct.anon.28, ptr %123, i32 0, i32 3
  %125 = load float, ptr %124, align 4
  %126 = load float, ptr %52, align 4
  %127 = fmul float %125, %126
  store float %127, ptr %39, align 4
  %128 = load ptr, ptr %17, align 8
  %129 = load i32, ptr %34, align 4
  %130 = sext i32 %129 to i64
  %131 = getelementptr inbounds %union.t_iparams, ptr %128, i64 %130
  %132 = getelementptr inbounds %struct.anon.28, ptr %131, i32 0, i32 4
  %133 = load float, ptr %132, align 4
  %134 = load float, ptr %52, align 4
  %135 = fmul float %133, %134
  store float %135, ptr %41, align 4
  %136 = load ptr, ptr %17, align 8
  %137 = load i32, ptr %34, align 4
  %138 = sext i32 %137 to i64
  %139 = getelementptr inbounds %union.t_iparams, ptr %136, i64 %138
  %140 = getelementptr inbounds %struct.anon.28, ptr %139, i32 0, i32 5
  %141 = load float, ptr %140, align 4
  store float %141, ptr %43, align 4
  %142 = load float, ptr %53, align 4
  %143 = load float, ptr %38, align 4
  %144 = load float, ptr %22, align 4
  %145 = load float, ptr %39, align 4
  %146 = fmul float %144, %145
  %147 = call float @llvm.fmuladd.f32(float %142, float %143, float %146)
  store float %147, ptr %44, align 4
  %148 = load float, ptr %53, align 4
  %149 = load float, ptr %40, align 4
  %150 = load float, ptr %22, align 4
  %151 = load float, ptr %41, align 4
  %152 = fmul float %150, %151
  %153 = call float @llvm.fmuladd.f32(float %148, float %149, float %152)
  store float %153, ptr %45, align 4
  %154 = load float, ptr %53, align 4
  %155 = load float, ptr %42, align 4
  %156 = load float, ptr %22, align 4
  %157 = load float, ptr %43, align 4
  %158 = fmul float %156, %157
  %159 = call float @llvm.fmuladd.f32(float %154, float %155, float %158)
  store float %159, ptr %46, align 4
  %160 = load ptr, ptr %18, align 8
  %161 = load i32, ptr %29, align 4
  %162 = sext i32 %161 to i64
  %163 = getelementptr inbounds [3 x float], ptr %160, i64 %162
  %164 = getelementptr inbounds [3 x float], ptr %163, i64 0, i64 0
  %165 = load ptr, ptr %18, align 8
  %166 = load i32, ptr %30, align 4
  %167 = sext i32 %166 to i64
  %168 = getelementptr inbounds [3 x float], ptr %165, i64 %167
  %169 = getelementptr inbounds [3 x float], ptr %168, i64 0, i64 0
  %170 = load ptr, ptr %18, align 8
  %171 = load i32, ptr %31, align 4
  %172 = sext i32 %171 to i64
  %173 = getelementptr inbounds [3 x float], ptr %170, i64 %172
  %174 = getelementptr inbounds [3 x float], ptr %173, i64 0, i64 0
  %175 = load ptr, ptr %18, align 8
  %176 = load i32, ptr %32, align 4
  %177 = sext i32 %176 to i64
  %178 = getelementptr inbounds [3 x float], ptr %175, i64 %177
  %179 = getelementptr inbounds [3 x float], ptr %178, i64 0, i64 0
  %180 = load ptr, ptr %21, align 8
  %181 = getelementptr inbounds [3 x float], ptr %54, i64 0, i64 0
  %182 = getelementptr inbounds [3 x float], ptr %55, i64 0, i64 0
  %183 = getelementptr inbounds [3 x float], ptr %56, i64 0, i64 0
  %184 = getelementptr inbounds [3 x float], ptr %57, i64 0, i64 0
  %185 = getelementptr inbounds [3 x float], ptr %58, i64 0, i64 0
  %186 = call noundef float @_Z9dih_anglePKfS0_S0_S0_PK5t_pbcPfS4_S4_S4_S4_PiS5_S5_(ptr noundef %164, ptr noundef %169, ptr noundef %174, ptr noundef %179, ptr noundef %180, ptr noundef %181, ptr noundef %182, ptr noundef %183, ptr noundef %184, ptr noundef %185, ptr noundef %35, ptr noundef %36, ptr noundef %37)
  store float %186, ptr %47, align 4
  %187 = load float, ptr %47, align 4
  %188 = load float, ptr %44, align 4
  %189 = fsub float %187, %188
  store float %189, ptr %51, align 4
  call void @_Z16make_dp_periodicPf(ptr noundef %51)
  %190 = load float, ptr %51, align 4
  %191 = load float, ptr %45, align 4
  %192 = fcmp ogt float %190, %191
  br i1 %192, label %193, label %197

193:                                              ; preds = %67
  %194 = load float, ptr %51, align 4
  %195 = load float, ptr %45, align 4
  %196 = fsub float %194, %195
  store float %196, ptr %49, align 4
  br label %208

197:                                              ; preds = %67
  %198 = load float, ptr %51, align 4
  %199 = load float, ptr %45, align 4
  %200 = fneg float %199
  %201 = fcmp olt float %198, %200
  br i1 %201, label %202, label %206

202:                                              ; preds = %197
  %203 = load float, ptr %51, align 4
  %204 = load float, ptr %45, align 4
  %205 = fadd float %203, %204
  store float %205, ptr %49, align 4
  br label %207

206:                                              ; preds = %197
  store float 0.000000e+00, ptr %49, align 4
  br label %207

207:                                              ; preds = %206, %202
  br label %208

208:                                              ; preds = %207, %193
  %209 = load float, ptr %49, align 4
  %210 = fpext float %209 to double
  %211 = fcmp une double %210, 0.000000e+00
  br i1 %211, label %212, label %293

212:                                              ; preds = %208
  %213 = load float, ptr %49, align 4
  %214 = load float, ptr %49, align 4
  %215 = fmul float %213, %214
  store float %215, ptr %50, align 4
  %216 = load float, ptr %46, align 4
  %217 = fpext float %216 to double
  %218 = fmul double 5.000000e-01, %217
  %219 = load float, ptr %50, align 4
  %220 = fpext float %219 to double
  %221 = load float, ptr %28, align 4
  %222 = fpext float %221 to double
  %223 = call double @llvm.fmuladd.f64(double %218, double %220, double %222)
  %224 = fptrunc double %223 to float
  store float %224, ptr %28, align 4
  %225 = load float, ptr %46, align 4
  %226 = load float, ptr %49, align 4
  %227 = fmul float %225, %226
  store float %227, ptr %48, align 4
  %228 = load float, ptr %43, align 4
  %229 = load float, ptr %42, align 4
  %230 = fsub float %228, %229
  %231 = fpext float %230 to double
  %232 = fmul double 5.000000e-01, %231
  %233 = load float, ptr %50, align 4
  %234 = fpext float %233 to double
  %235 = load ptr, ptr %23, align 8
  %236 = load float, ptr %235, align 4
  %237 = fpext float %236 to double
  %238 = call double @llvm.fmuladd.f64(double %232, double %234, double %237)
  %239 = fptrunc double %238 to float
  store float %239, ptr %235, align 4
  %240 = load float, ptr %49, align 4
  %241 = fcmp ogt float %240, 0.000000e+00
  br i1 %241, label %242, label %257

242:                                              ; preds = %212
  %243 = load float, ptr %46, align 4
  %244 = load float, ptr %49, align 4
  %245 = fmul float %243, %244
  %246 = load float, ptr %41, align 4
  %247 = load float, ptr %40, align 4
  %248 = fsub float %246, %247
  %249 = load float, ptr %39, align 4
  %250 = load float, ptr %38, align 4
  %251 = fsub float %249, %250
  %252 = fadd float %248, %251
  %253 = load ptr, ptr %23, align 8
  %254 = load float, ptr %253, align 4
  %255 = fneg float %245
  %256 = call float @llvm.fmuladd.f32(float %255, float %252, float %254)
  store float %256, ptr %253, align 4
  br label %275

257:                                              ; preds = %212
  %258 = load float, ptr %49, align 4
  %259 = fcmp olt float %258, 0.000000e+00
  br i1 %259, label %260, label %274

260:                                              ; preds = %257
  %261 = load float, ptr %46, align 4
  %262 = load float, ptr %49, align 4
  %263 = fmul float %261, %262
  %264 = load float, ptr %41, align 4
  %265 = load float, ptr %40, align 4
  %266 = fsub float %264, %265
  %267 = load float, ptr %39, align 4
  %268 = load float, ptr %38, align 4
  %269 = fsub float %267, %268
  %270 = fsub float %266, %269
  %271 = load ptr, ptr %23, align 8
  %272 = load float, ptr %271, align 4
  %273 = call float @llvm.fmuladd.f32(float %263, float %270, float %272)
  store float %273, ptr %271, align 4
  br label %274

274:                                              ; preds = %260, %257
  br label %275

275:                                              ; preds = %274, %242
  %276 = load i32, ptr %29, align 4
  %277 = load i32, ptr %30, align 4
  %278 = load i32, ptr %31, align 4
  %279 = load i32, ptr %32, align 4
  %280 = load float, ptr %48, align 4
  %281 = getelementptr inbounds [3 x float], ptr %54, i64 0, i64 0
  %282 = getelementptr inbounds [3 x float], ptr %55, i64 0, i64 0
  %283 = getelementptr inbounds [3 x float], ptr %56, i64 0, i64 0
  %284 = getelementptr inbounds [3 x float], ptr %57, i64 0, i64 0
  %285 = getelementptr inbounds [3 x float], ptr %58, i64 0, i64 0
  %286 = load ptr, ptr %19, align 8
  %287 = load ptr, ptr %20, align 8
  %288 = load ptr, ptr %21, align 8
  %289 = load ptr, ptr %18, align 8
  %290 = load i32, ptr %35, align 4
  %291 = load i32, ptr %36, align 4
  %292 = load i32, ptr %37, align 4
  call void @_Z10do_dih_fupIL18BondedKernelFlavor3EEviiiifPfS1_S1_S1_S1_PA4_fPA3_fPK5t_pbcPA3_Kfiii(i32 noundef %276, i32 noundef %277, i32 noundef %278, i32 noundef %279, float noundef %280, ptr noundef %281, ptr noundef %282, ptr noundef %283, ptr noundef %284, ptr noundef %285, ptr noundef %286, ptr noundef %287, ptr noundef %288, ptr noundef %289, i32 noundef %290, i32 noundef %291, i32 noundef %292)
  br label %293

293:                                              ; preds = %275, %208
  br label %63, !llvm.loop !203

294:                                              ; preds = %63
  %295 = load float, ptr %28, align 4
  ret float %295
}